; Function Attrs: mustprogress uwtable
define void @_ZN6duckdb11dbp_encoder10BeginWriteImEEvRNS_10DbpEncoderERNS_11WriteStreamERKT_(ptr noundef nonnull align 8 dereferenceable(18480) %0, ptr noundef nonnull align 8 dereferenceable(8) %1, ptr noundef nonnull readonly align 8 captures(none) dereferenceable(8) %2) local_unnamed_addr #1 {
  %4 = alloca i64, align 8
  call void @llvm.lifetime.start.p0(i64 8, ptr nonnull %4) #26
  %5 = load i64, ptr %2, align 8, !tbaa !24
  store i64 %5, ptr %4, align 8, !tbaa !24
  call void @_ZN6duckdb10DbpEncoder10BeginWriteERNS_11WriteStreamERKl(ptr noundef nonnull align 8 dereferenceable(18480) %0, ptr noundef nonnull align 8 dereferenceable(8) %1, ptr noundef nonnull align 8 dereferenceable(8) %4)
  call void @llvm.lifetime.end.p0(i64 8, ptr nonnull %4) #26
  ret void
}